CCS PCH C Compiler, Version 5.007, 61971               29-Nis-24 16:00

               Filename:   C:\Users\Bengi\Desktop\uygulamalar\Mikroiþlemciler\rb4_rb7_kesme\main.lst

               ROM used:   420 bytes (1%)
                           Largest free fragment is 32344
               RAM used:   24 (2%) at main() level
                           27 (2%) worst case
               Stack used: 1 locations (0 in main + 1 for interrupts)
               Stack size: 31

*
0000:  GOTO   0148
*
0008:  MOVWF  04
000A:  MOVFF  FD8,05
000E:  MOVFF  FE0,06
0012:  MOVLB  0
0014:  MOVFF  FE9,0C
0018:  MOVFF  FEA,07
001C:  MOVFF  FE1,08
0020:  MOVFF  FE2,09
0024:  MOVFF  FD9,0A
0028:  MOVFF  FDA,0B
002C:  MOVFF  FF3,12
0030:  MOVFF  FF4,13
0034:  MOVFF  FFA,14
0038:  MOVFF  00,0E
003C:  MOVFF  01,0F
0040:  MOVFF  02,10
0044:  MOVFF  03,11
0048:  BTFSS  FF2.3
004A:  GOTO   0054
004E:  BTFSC  FF2.0
0050:  GOTO   00BE
0054:  MOVFF  0E,00
0058:  MOVFF  0F,01
005C:  MOVFF  10,02
0060:  MOVFF  11,03
0064:  MOVFF  0C,FE9
0068:  MOVFF  07,FEA
006C:  BSF    07.7
006E:  MOVFF  08,FE1
0072:  MOVFF  09,FE2
0076:  MOVFF  0A,FD9
007A:  MOVFF  0B,FDA
007E:  MOVFF  12,FF3
0082:  MOVFF  13,FF4
0086:  MOVFF  14,FFA
008A:  MOVF   04,W
008C:  MOVFF  06,FE0
0090:  MOVFF  05,FD8
0094:  RETFIE 0
.................... #include <main.h> 
.................... #include <18F452.h> 
.................... //////// Standard Header file for the PIC18F452 device //////////////// 
.................... #device PIC18F452 
....................  
.................... #list 
....................  
.................... #device ADC=16 
....................  
.................... #FUSES NOWDT                 	//No Watch Dog Timer 
.................... #FUSES WDT128                	//Watch Dog Timer uses 1:128 Postscale 
.................... #FUSES NOBROWNOUT            	//No brownout reset 
.................... #FUSES NOLVP                 	//No low voltage prgming, B3(PIC16) or B5(PIC18) used for I/O 
....................  
.................... #use delay(crystal=4000000) 
0096:  CLRF   FEA
0098:  MOVLW  1A
009A:  MOVWF  FE9
009C:  MOVF   FEF,W
009E:  BZ    00BC
00A0:  MOVLW  01
00A2:  MOVWF  01
00A4:  CLRF   00
00A6:  DECFSZ 00,F
00A8:  BRA    00A6
00AA:  DECFSZ 01,F
00AC:  BRA    00A4
00AE:  MOVLW  4A
00B0:  MOVWF  00
00B2:  DECFSZ 00,F
00B4:  BRA    00B2
00B6:  BRA    00B8
00B8:  DECFSZ FEF,F
00BA:  BRA    00A0
00BC:  RETURN 0
.................... #use FIXED_IO( C_outputs=PIN_C7,PIN_C6,PIN_C5,PIN_C4,PIN_C3,PIN_C2,PIN_C1,PIN_C0 ) 
....................  
....................  
....................  
.................... #INT_RB 
.................... void  RB_isr(void)  
.................... { 
....................    output_c(0x00); 
00BE:  CLRF   F94
00C0:  CLRF   F8B
....................    if(input(pin_B4)){ 
00C2:  BSF    F93.4
00C4:  BTFSS  F81.4
00C6:  BRA    00E2
....................       output_high(pin_C4); 
00C8:  MOVLW  00
00CA:  MOVWF  F94
00CC:  BSF    F8B.4
....................       delay_ms(5000); 
00CE:  MOVLW  14
00D0:  MOVWF  19
00D2:  MOVLW  FA
00D4:  MOVWF  1A
00D6:  RCALL  0096
00D8:  DECFSZ 19,F
00DA:  BRA    00D2
....................       output_low(pin_C4); 
00DC:  MOVLW  00
00DE:  MOVWF  F94
00E0:  BCF    F8B.4
....................    } 
....................    if(input(pin_B5)){ 
00E2:  BSF    F93.5
00E4:  BTFSS  F81.5
00E6:  BRA    0102
....................       output_high(pin_C5); 
00E8:  MOVLW  00
00EA:  MOVWF  F94
00EC:  BSF    F8B.5
....................       delay_ms(5000); 
00EE:  MOVLW  14
00F0:  MOVWF  19
00F2:  MOVLW  FA
00F4:  MOVWF  1A
00F6:  RCALL  0096
00F8:  DECFSZ 19,F
00FA:  BRA    00F2
....................       output_low(pin_C5); 
00FC:  MOVLW  00
00FE:  MOVWF  F94
0100:  BCF    F8B.5
....................    } 
....................    if(input(pin_B6)){ 
0102:  BSF    F93.6
0104:  BTFSS  F81.6
0106:  BRA    0122
....................       output_high(pin_C6); 
0108:  MOVLW  00
010A:  MOVWF  F94
010C:  BSF    F8B.6
....................       delay_ms(5000); 
010E:  MOVLW  14
0110:  MOVWF  19
0112:  MOVLW  FA
0114:  MOVWF  1A
0116:  RCALL  0096
0118:  DECFSZ 19,F
011A:  BRA    0112
....................       output_low(pin_C6); 
011C:  MOVLW  00
011E:  MOVWF  F94
0120:  BCF    F8B.6
....................    } 
....................    if(input(pin_B7)){ 
0122:  BSF    F93.7
0124:  BTFSS  F81.7
0126:  BRA    0142
....................       output_high(pin_C7); 
0128:  MOVLW  00
012A:  MOVWF  F94
012C:  BSF    F8B.7
....................       delay_ms(5000); 
012E:  MOVLW  14
0130:  MOVWF  19
0132:  MOVLW  FA
0134:  MOVWF  1A
0136:  RCALL  0096
0138:  DECFSZ 19,F
013A:  BRA    0132
....................       output_low(pin_C7); 
013C:  MOVLW  00
013E:  MOVWF  F94
0140:  BCF    F8B.7
....................    } 
0142:  BCF    FF2.0
0144:  GOTO   0054
.................... } 
.................... // düþen kenar, yükselen kenar olayý harici kesmede var sadece 
.................... void main() 
0148:  CLRF   FF8
014A:  BCF    FD0.7
014C:  BSF    07.7
014E:  BSF    FC1.0
0150:  BSF    FC1.1
0152:  BSF    FC1.2
0154:  BCF    FC1.3
.................... { 
....................  
....................    enable_interrupts(INT_RB); 
0156:  BSF    FF2.3
....................    enable_interrupts(GLOBAL); 
0158:  MOVLW  C0
015A:  IORWF  FF2,F
....................     
....................    set_tris_b(0xFF); 
015C:  MOVLW  FF
015E:  MOVWF  F93
....................    set_tris_c(0x00); 
0160:  MOVLW  00
0162:  MOVWF  F94
....................     
....................    output_c(0x00); 
0164:  CLRF   F94
0166:  CLRF   F8B
....................  
....................    while(TRUE) 
....................    { 
....................       output_c(0xff); 
0168:  CLRF   F94
016A:  SETF   F8B
....................       delay_ms(1000); 
016C:  MOVLW  04
016E:  MOVWF  17
0170:  CLRF   16
0172:  BTFSC  FF2.7
0174:  BSF    16.7
0176:  BCF    FF2.7
0178:  MOVLW  FA
017A:  MOVWF  1A
017C:  RCALL  0096
017E:  BTFSC  16.7
0180:  BSF    FF2.7
0182:  DECFSZ 17,F
0184:  BRA    0170
....................       output_c(0x00); 
0186:  CLRF   F94
0188:  CLRF   F8B
....................       delay_ms(1000); 
018A:  MOVLW  04
018C:  MOVWF  17
018E:  CLRF   16
0190:  BTFSC  FF2.7
0192:  BSF    16.7
0194:  BCF    FF2.7
0196:  MOVLW  FA
0198:  MOVWF  1A
019A:  RCALL  0096
019C:  BTFSC  16.7
019E:  BSF    FF2.7
01A0:  DECFSZ 17,F
01A2:  BRA    018E
01A4:  BRA    0168
....................    } 
....................  
.................... } 
01A6:  SLEEP 

Configuration Fuses:
   Word  1: 2100   XT NOOSCSEN
   Word  2: 0E0C   PUT NOBROWNOUT BORV20 NOWDT WDT128
   Word  3: 0100   CCP2C1
   Word  4: 0081   STVREN NOLVP NODEBUG
   Word  5: C00F   NOPROTECT NOCPB NOCPD
   Word  6: E00F   NOWRT NOWRTC NOWRTB NOWRTD
   Word  7: 400F   NOEBTR NOEBTRB
