CCS PCM C Compiler, Version 5.007, 61971               25-Mar-24 15:59

               Filename:   C:\z_ÖZEL\Ders\PIC C denemeler\Hafta_6\DC_motor\main.lst

               ROM used:   86 words (1%)
                           Largest free fragment is 2048
               RAM used:   6 (2%) at main() level
                           6 (2%) worst case
               Stack used: 0 locations
               Stack size: 8

*
0000:  MOVLW  00
0001:  MOVWF  0A
0002:  GOTO   019
0003:  NOP
.................... #include <main.h> 
.................... #include <16F877A.h> 
.................... //////// Standard Header file for the PIC16F877A device //////////////// 
.................... #device PIC16F877A 
....................  
.................... #list 
....................  
.................... #device ADC=16 
....................  
.................... #FUSES NOWDT                 	//No Watch Dog Timer 
.................... #FUSES NOBROWNOUT            	//No brownout reset 
.................... #FUSES NOLVP                 	//No low voltage prgming, B3(PIC16) or B5(PIC18) used for I/O 
....................  
.................... #use delay(crystal=4MHz) 
0004:  MOVLW  21
0005:  MOVWF  04
0006:  BCF    03.7
0007:  MOVF   00,W
0008:  BTFSC  03.2
0009:  GOTO   018
000A:  MOVLW  01
000B:  MOVWF  78
000C:  CLRF   77
000D:  DECFSZ 77,F
000E:  GOTO   00D
000F:  DECFSZ 78,F
0010:  GOTO   00C
0011:  MOVLW  4A
0012:  MOVWF  77
0013:  DECFSZ 77,F
0014:  GOTO   013
0015:  GOTO   016
0016:  DECFSZ 00,F
0017:  GOTO   00A
0018:  RETURN
.................... #use FIXED_IO( B_outputs=PIN_B7,PIN_B6,PIN_B5,PIN_B4,PIN_B3,PIN_B2,PIN_B1,PIN_B0 ) 
....................  
....................  
....................  
.................... void main() 
0019:  BSF    03.5
001A:  BSF    1F.0
001B:  BSF    1F.1
001C:  BSF    1F.2
001D:  BCF    1F.3
001E:  MOVLW  07
001F:  MOVWF  1C
0020:  BCF    03.7
0021:  MOVLW  1F
0022:  ANDWF  03,F
.................... { 
....................  
....................    set_tris_a(0xff); 
0023:  MOVLW  FF
0024:  MOVWF  05
....................     
....................    set_tris_b(0x00); 
0025:  MOVLW  00
0026:  MOVWF  06
....................    output_b(0x00); 
0027:  CLRF   06
0028:  BCF    03.5
0029:  CLRF   06
....................     
....................    while(TRUE) 
....................    { 
....................       if(input(pin_A0)==1){ 
002A:  BSF    03.5
002B:  BSF    05.0
002C:  BCF    03.5
002D:  BTFSS  05.0
002E:  GOTO   03F
....................          delay_ms(20); 
002F:  MOVLW  14
0030:  MOVWF  21
0031:  CALL   004
....................          while(input(pin_A0)==1); 
0032:  BSF    03.5
0033:  BSF    05.0
0034:  BCF    03.5
0035:  BTFSC  05.0
0036:  GOTO   032
....................          delay_ms(20); 
0037:  MOVLW  14
0038:  MOVWF  21
0039:  CALL   004
....................          output_b(0b00000101);   //A motorunu bir yönünde çalýþtýrdýk 
003A:  BSF    03.5
003B:  CLRF   06
003C:  MOVLW  05
003D:  BCF    03.5
003E:  MOVWF  06
....................       } 
....................        
....................       if(input(pin_A2)==1){ 
003F:  BSF    03.5
0040:  BSF    05.2
0041:  BCF    03.5
0042:  BTFSS  05.2
0043:  GOTO   054
....................          delay_ms(20); 
0044:  MOVLW  14
0045:  MOVWF  21
0046:  CALL   004
....................          while(input(pin_A2)==1); 
0047:  BSF    03.5
0048:  BSF    05.2
0049:  BCF    03.5
004A:  BTFSC  05.2
004B:  GOTO   047
....................          delay_ms(20); 
004C:  MOVLW  14
004D:  MOVWF  21
004E:  CALL   004
....................          output_b(0b00000101);   //A motorunu bir yönünde çalýþtýrdýk 
004F:  BSF    03.5
0050:  CLRF   06
0051:  MOVLW  05
0052:  BCF    03.5
0053:  MOVWF  06
....................       } 
0054:  GOTO   02A
....................    } 
....................  
.................... } 
0055:  SLEEP

Configuration Fuses:
   Word  1: 3F31   XT NOWDT PUT NOBROWNOUT NOLVP NOCPD NOWRT NODEBUG NOPROTECT
