CCS PCM C Compiler, Version 5.007, 61971               12-Mar-24 14:33

               Filename:   C:\Users\Bengi\Desktop\uygulamalar\Mikroiþlemciler\trafik_isigi+\main.lst

               ROM used:   181 words (18%)
                           Largest free fragment is 843
               RAM used:   6 (9%) at main() level
                           7 (10%) worst case
               Stack used: 0 locations
               Stack size: 8

*
0000:  MOVLW  00
0001:  MOVWF  0A
0002:  GOTO   018
0003:  NOP
.................... #include <main.h> 
.................... #include <16F84A.h> 
.................... //////// Standard Header file for the PIC16F84A device //////////////// 
.................... #device PIC16F84A 
....................  
.................... #list 
....................  
....................  
.................... #FUSES NOWDT                 	//No Watch Dog Timer 
....................  
.................... #use delay(crystal=4000000) 
0004:  MOVLW  12
0005:  MOVWF  04
0006:  MOVF   00,W
0007:  BTFSC  03.2
0008:  GOTO   017
0009:  MOVLW  01
000A:  MOVWF  0D
000B:  CLRF   0C
000C:  DECFSZ 0C,F
000D:  GOTO   00C
000E:  DECFSZ 0D,F
000F:  GOTO   00B
0010:  MOVLW  4A
0011:  MOVWF  0C
0012:  DECFSZ 0C,F
0013:  GOTO   012
0014:  GOTO   015
0015:  DECFSZ 00,F
0016:  GOTO   009
0017:  RETURN
.................... #use FIXED_IO( B_outputs=PIN_B7,PIN_B6,PIN_B5,PIN_B4,PIN_B3,PIN_B2,PIN_B1,PIN_B0 ) 
....................  
....................  
....................  
.................... int i; 
.................... void main() 
0018:  MOVLW  1F
0019:  ANDWF  03,F
.................... { 
....................    while(TRUE) 
....................    { 
....................       set_tris_b(0x00); 
001A:  MOVLW  00
001B:  BSF    03.5
001C:  MOVWF  06
....................       output_b(0x00); 
001D:  CLRF   06
001E:  BCF    03.5
001F:  CLRF   06
....................     
....................       //Yatay kýrmýzý dikey yeþil 
....................       output_b(0b00100001);  //YKB0 ve DYB5 
0020:  BSF    03.5
0021:  CLRF   06
0022:  MOVLW  21
0023:  BCF    03.5
0024:  MOVWF  06
....................       delay_ms(3000);        // 3 sn 
0025:  MOVLW  0C
0026:  MOVWF  11
0027:  MOVLW  FA
0028:  MOVWF  12
0029:  CALL   004
002A:  DECFSZ 11,F
002B:  GOTO   027
....................     
....................       for(i = 1; i<= 3; i++) { 
002C:  MOVLW  01
002D:  MOVWF  10
002E:  MOVF   10,W
002F:  SUBLW  03
0030:  BTFSS  03.0
0031:  GOTO   04C
....................          output_b(0b00010001); // YKB0 ve DYB4 
0032:  BSF    03.5
0033:  CLRF   06
0034:  MOVLW  11
0035:  BCF    03.5
0036:  MOVWF  06
....................          delay_ms(1000); 
0037:  MOVLW  04
0038:  MOVWF  11
0039:  MOVLW  FA
003A:  MOVWF  12
003B:  CALL   004
003C:  DECFSZ 11,F
003D:  GOTO   039
....................          output_b(0b00000001); // YKBO ve DYB4 
003E:  BSF    03.5
003F:  CLRF   06
0040:  MOVLW  01
0041:  BCF    03.5
0042:  MOVWF  06
....................          delay_ms(1000); 
0043:  MOVLW  04
0044:  MOVWF  11
0045:  MOVLW  FA
0046:  MOVWF  12
0047:  CALL   004
0048:  DECFSZ 11,F
0049:  GOTO   045
004A:  INCF   10,F
004B:  GOTO   02E
....................       } 
....................        
....................       output_b(0b00001001);   // YKB0 ve DYB4 
004C:  BSF    03.5
004D:  CLRF   06
004E:  MOVLW  09
004F:  BCF    03.5
0050:  MOVWF  06
....................       delay_ms(1000); 
0051:  MOVLW  04
0052:  MOVWF  11
0053:  MOVLW  FA
0054:  MOVWF  12
0055:  CALL   004
0056:  DECFSZ 11,F
0057:  GOTO   053
....................       output_b(0b00001010);  // YKB0 ve DYB4 
0058:  BSF    03.5
0059:  CLRF   06
005A:  MOVLW  0A
005B:  BCF    03.5
005C:  MOVWF  06
....................       delay_ms(1000); 
005D:  MOVLW  04
005E:  MOVWF  11
005F:  MOVLW  FA
0060:  MOVWF  12
0061:  CALL   004
0062:  DECFSZ 11,F
0063:  GOTO   05F
....................       output_b(0b00001100);  // YKB0 ve DYB4 
0064:  BSF    03.5
0065:  CLRF   06
0066:  MOVLW  0C
0067:  BCF    03.5
0068:  MOVWF  06
....................       delay_ms(3000); 
0069:  MOVWF  11
006A:  MOVLW  FA
006B:  MOVWF  12
006C:  CALL   004
006D:  DECFSZ 11,F
006E:  GOTO   06A
....................        
....................       for(i = 1; i<= 3; i++) { 
006F:  MOVLW  01
0070:  MOVWF  10
0071:  MOVF   10,W
0072:  SUBLW  03
0073:  BTFSS  03.0
0074:  GOTO   08F
....................          output_b(0b0001010); // YKB0 ve DYB4 
0075:  BSF    03.5
0076:  CLRF   06
0077:  MOVLW  0A
0078:  BCF    03.5
0079:  MOVWF  06
....................          delay_ms(1000); 
007A:  MOVLW  04
007B:  MOVWF  11
007C:  MOVLW  FA
007D:  MOVWF  12
007E:  CALL   004
007F:  DECFSZ 11,F
0080:  GOTO   07C
....................          output_b(0b00001000); // YKBO ve DYB4 
0081:  BSF    03.5
0082:  CLRF   06
0083:  MOVLW  08
0084:  BCF    03.5
0085:  MOVWF  06
....................          delay_ms(1000); 
0086:  MOVLW  04
0087:  MOVWF  11
0088:  MOVLW  FA
0089:  MOVWF  12
008A:  CALL   004
008B:  DECFSZ 11,F
008C:  GOTO   088
008D:  INCF   10,F
008E:  GOTO   071
....................       } 
....................        
....................       output_b(0b00001001); // YKB0 ve DYB4 
008F:  BSF    03.5
0090:  CLRF   06
0091:  MOVLW  09
0092:  BCF    03.5
0093:  MOVWF  06
....................       delay_ms(1000); 
0094:  MOVLW  04
0095:  MOVWF  11
0096:  MOVLW  FA
0097:  MOVWF  12
0098:  CALL   004
0099:  DECFSZ 11,F
009A:  GOTO   096
....................       output_b(0b00010001); // YKB0 ve DYB4 
009B:  BSF    03.5
009C:  CLRF   06
009D:  MOVLW  11
009E:  BCF    03.5
009F:  MOVWF  06
....................       delay_ms(1000); 
00A0:  MOVLW  04
00A1:  MOVWF  11
00A2:  MOVLW  FA
00A3:  MOVWF  12
00A4:  CALL   004
00A5:  DECFSZ 11,F
00A6:  GOTO   0A2
....................       output_b(0b00100001); // YKB0 ve DYB4 
00A7:  BSF    03.5
00A8:  CLRF   06
00A9:  MOVLW  21
00AA:  BCF    03.5
00AB:  MOVWF  06
....................       delay_ms(3000); 
00AC:  MOVLW  0C
00AD:  MOVWF  11
00AE:  MOVLW  FA
00AF:  MOVWF  12
00B0:  CALL   004
00B1:  DECFSZ 11,F
00B2:  GOTO   0AE
00B3:  GOTO   01A
....................    } 
....................     
....................     
....................        
....................     
....................  
.................... } 
00B4:  SLEEP

Configuration Fuses:
   Word  1: 3FF1   XT NOWDT PUT NOPROTECT
