CCS PCM C Compiler, Version 5.007, 61971               26-Mar-24 15:49

               Filename:   C:\Users\Bengi\Desktop\uygulamalar\Mikroiþlemciler\konveyor_uyg\main.lst

               ROM used:   106 words (1%)
                           Largest free fragment is 2048
               RAM used:   7 (2%) at main() level
                           7 (2%) worst case
               Stack used: 0 locations
               Stack size: 8

*
0000:  MOVLW  00
0001:  MOVWF  0A
0002:  GOTO   019
0003:  NOP
.................... #include <main.h> 
.................... #include <16F877A.h> 
.................... //////// Standard Header file for the PIC16F877A device //////////////// 
.................... #device PIC16F877A 
....................  
.................... #list 
....................  
.................... #device ADC=16 
....................  
.................... #FUSES NOWDT                 	//No Watch Dog Timer 
.................... #FUSES NOBROWNOUT            	//No brownout reset 
.................... #FUSES NOLVP                 	//No low voltage prgming, B3(PIC16) or B5(PIC18) used for I/O 
....................  
.................... #use delay(crystal=4000000) 
0004:  MOVLW  21
0005:  MOVWF  04
0006:  BCF    03.7
0007:  MOVF   00,W
0008:  BTFSC  03.2
0009:  GOTO   018
000A:  MOVLW  01
000B:  MOVWF  78
000C:  CLRF   77
000D:  DECFSZ 77,F
000E:  GOTO   00D
000F:  DECFSZ 78,F
0010:  GOTO   00C
0011:  MOVLW  4A
0012:  MOVWF  77
0013:  DECFSZ 77,F
0014:  GOTO   013
0015:  GOTO   016
0016:  DECFSZ 00,F
0017:  GOTO   00A
0018:  RETURN
.................... #use FIXED_IO( B_outputs=PIN_B7,PIN_B6,PIN_B5,PIN_B4,PIN_B3,PIN_B2,PIN_B1,PIN_B0 ) 
....................  
....................  
....................  
.................... int sayac = 0; 
.................... void main() 
0019:  CLRF   20
001A:  BSF    03.5
001B:  BSF    1F.0
001C:  BSF    1F.1
001D:  BSF    1F.2
001E:  BCF    1F.3
001F:  MOVLW  07
0020:  MOVWF  1C
0021:  BCF    03.7
0022:  MOVLW  1F
0023:  ANDWF  03,F
.................... { 
....................     
....................    set_tris_a(0xFF); 
0024:  MOVLW  FF
0025:  MOVWF  05
....................    set_tris_b(0x00); 
0026:  MOVLW  00
0027:  MOVWF  06
....................     
....................    output_b(0x00); 
0028:  CLRF   06
0029:  BCF    03.5
002A:  CLRF   06
....................   
....................  
....................    while(TRUE) 
....................    { 
....................       bas: output_b(0b00000101); 
002B:  BSF    03.5
002C:  CLRF   06
002D:  MOVLW  05
002E:  BCF    03.5
002F:  MOVWF  06
....................       if(input(pin_A0) == 1) { 
0030:  BSF    03.5
0031:  BSF    05.0
0032:  BCF    03.5
0033:  BTFSS  05.0
0034:  GOTO   068
....................          delay_ms(20); 
0035:  MOVLW  14
0036:  MOVWF  21
0037:  CALL   004
....................          while(input(pin_A0) == 1); // el çekilene kadar bekle 
0038:  BSF    03.5
0039:  BSF    05.0
003A:  BCF    03.5
003B:  BTFSC  05.0
003C:  GOTO   038
....................          sayac++; 
003D:  INCF   20,F
....................           
....................          output_b(0b00000101); 
003E:  BSF    03.5
003F:  CLRF   06
0040:  MOVLW  05
0041:  BCF    03.5
0042:  MOVWF  06
....................           
....................          if(sayac == 10){ 
0043:  MOVF   20,W
0044:  SUBLW  0A
0045:  BTFSS  03.2
0046:  GOTO   068
....................             delay_ms(100); 
0047:  MOVLW  64
0048:  MOVWF  21
0049:  CALL   004
....................             //output_b(0x00); gerekli deðil 
....................              
....................             while(sayac > 0) { 
004A:  MOVF   20,F
004B:  BTFSC  03.2
004C:  GOTO   068
....................                output_b(0b00011000); 
004D:  BSF    03.5
004E:  CLRF   06
004F:  MOVLW  18
0050:  BCF    03.5
0051:  MOVWF  06
....................                if(input(pin_A1) == 1) { 
0052:  BSF    03.5
0053:  BSF    05.1
0054:  BCF    03.5
0055:  BTFSS  05.1
0056:  GOTO   067
....................                    
....................                   delay_ms(20); 
0057:  MOVLW  14
0058:  MOVWF  21
0059:  CALL   004
....................                   while(input(pin_A1) == 1); 
005A:  BSF    03.5
005B:  BSF    05.1
005C:  BCF    03.5
005D:  BTFSC  05.1
005E:  GOTO   05A
....................                   delay_ms(20); 
005F:  MOVLW  14
0060:  MOVWF  21
0061:  CALL   004
....................                   //output_b(0x00); gerekli deðil 
....................                   sayac = 0; 
0062:  CLRF   20
....................                   delay_ms(200); 
0063:  MOVLW  C8
0064:  MOVWF  21
0065:  CALL   004
....................                   goto bas; 
0066:  GOTO   02B
....................                } 
0067:  GOTO   04A
....................                               
....................             } 
....................          } 
....................                       
....................       } 
0068:  GOTO   02B
....................        
....................         
....................    } 
....................  
.................... } 
0069:  SLEEP

Configuration Fuses:
   Word  1: 3F31   XT NOWDT PUT NOBROWNOUT NOLVP NOCPD NOWRT NODEBUG NOPROTECT
