CCS PCM C Compiler, Version 5.007, 61971               20-May-24 15:55

               Filename:   C:\z_ÖZEL\Ders\PIC C denemeler\Timer1\main.lst

               ROM used:   140 words (2%)
                           Largest free fragment is 2048
               RAM used:   13 (4%) at main() level
                           15 (4%) worst case
               Stack used: 1 locations (0 in main + 1 for interrupts)
               Stack size: 8

*
0000:  MOVLW  00
0001:  MOVWF  0A
0002:  GOTO   06C
0003:  NOP
0004:  MOVWF  7F
0005:  SWAPF  03,W
0006:  CLRF   03
0007:  MOVWF  21
0008:  MOVF   0A,W
0009:  MOVWF  20
000A:  CLRF   0A
000B:  MOVF   04,W
000C:  MOVWF  22
000D:  MOVF   77,W
000E:  MOVWF  23
000F:  MOVF   78,W
0010:  MOVWF  24
0011:  MOVF   79,W
0012:  MOVWF  25
0013:  MOVF   7A,W
0014:  MOVWF  26
0015:  BCF    03.7
0016:  BCF    03.5
0017:  MOVLW  8C
0018:  MOVWF  04
0019:  BTFSS  00.0
001A:  GOTO   01D
001B:  BTFSC  0C.0
001C:  GOTO   02E
001D:  MOVF   22,W
001E:  MOVWF  04
001F:  MOVF   23,W
0020:  MOVWF  77
0021:  MOVF   24,W
0022:  MOVWF  78
0023:  MOVF   25,W
0024:  MOVWF  79
0025:  MOVF   26,W
0026:  MOVWF  7A
0027:  MOVF   20,W
0028:  MOVWF  0A
0029:  SWAPF  21,W
002A:  MOVWF  03
002B:  SWAPF  7F,F
002C:  SWAPF  7F,W
002D:  RETFIE
002E:  BCF    0A.3
002F:  BCF    0A.4
0030:  GOTO   046
.................... #include <main.h> 
.................... #include <16F877A.h> 
.................... //////// Standard Header file for the PIC16F877A device //////////////// 
.................... #device PIC16F877A 
....................  
.................... #list 
....................  
.................... #device ADC=16 
....................  
.................... #FUSES NOWDT                 	//No Watch Dog Timer 
.................... #FUSES NOBROWNOUT            	//No brownout reset 
.................... #FUSES NOLVP                 	//No low voltage prgming, B3(PIC16) or B5(PIC18) used for I/O 
....................  
.................... #use delay(crystal=4MHz) 
0031:  MOVLW  29
0032:  MOVWF  04
0033:  BCF    03.7
0034:  MOVF   00,W
0035:  BTFSC  03.2
0036:  GOTO   045
0037:  MOVLW  01
0038:  MOVWF  78
0039:  CLRF   77
003A:  DECFSZ 77,F
003B:  GOTO   03A
003C:  DECFSZ 78,F
003D:  GOTO   039
003E:  MOVLW  4A
003F:  MOVWF  77
0040:  DECFSZ 77,F
0041:  GOTO   040
0042:  GOTO   043
0043:  DECFSZ 00,F
0044:  GOTO   037
0045:  RETURN
.................... #use FIXED_IO( B_outputs=PIN_B7,PIN_B6,PIN_B5,PIN_B4,PIN_B3,PIN_B2,PIN_B1,PIN_B0 ) 
....................  
....................  
.................... int sayac; 
.................... #INT_TIMER1 
.................... void  TIMER1_isr(void)  
.................... { 
....................    sayac=sayac+1; 
0046:  MOVLW  01
0047:  ADDWF  27,F
....................    if(sayac==2){ 
0048:  MOVF   27,W
0049:  SUBLW  02
004A:  BTFSS  03.2
004B:  GOTO   063
....................       for(int i=0;i<5;i++){ 
004C:  CLRF   28
004D:  MOVF   28,W
004E:  SUBLW  04
004F:  BTFSS  03.0
0050:  GOTO   062
....................          output_b(0xFF); 
0051:  BSF    03.5
0052:  CLRF   06
0053:  MOVLW  FF
0054:  BCF    03.5
0055:  MOVWF  06
....................          delay_ms(100); 
0056:  MOVLW  64
0057:  MOVWF  29
0058:  CALL   031
....................          output_b(0x00); 
0059:  BSF    03.5
005A:  CLRF   06
005B:  BCF    03.5
005C:  CLRF   06
....................          delay_ms(100); 
005D:  MOVLW  64
005E:  MOVWF  29
005F:  CALL   031
0060:  INCF   28,F
0061:  GOTO   04D
....................       } 
....................       sayac=0; 
0062:  CLRF   27
....................    } 
....................    set_timer1(3036); 
0063:  CLRF   0E
0064:  MOVLW  0B
0065:  MOVWF  0F
0066:  MOVLW  DC
0067:  MOVWF  0E
....................     
0068:  BCF    0C.0
0069:  BCF    0A.3
006A:  BCF    0A.4
006B:  GOTO   01D
.................... } 
....................  
.................... void main() 
006C:  BSF    03.5
006D:  BSF    1F.0
006E:  BSF    1F.1
006F:  BSF    1F.2
0070:  BCF    1F.3
0071:  MOVLW  07
0072:  MOVWF  1C
0073:  BCF    03.7
0074:  MOVLW  1F
0075:  ANDWF  03,F
.................... { 
....................    sayac=0; 
0076:  BCF    03.5
0077:  CLRF   27
....................    set_tris_b(0x00); 
0078:  MOVLW  00
0079:  BSF    03.5
007A:  MOVWF  06
....................    output_b(0x00); 
007B:  CLRF   06
007C:  BCF    03.5
007D:  CLRF   06
....................     
....................     
....................    setup_timer_1(T1_INTERNAL|T1_DIV_BY_8);      //524 ms overflow 
007E:  MOVLW  B5
007F:  MOVWF  10
....................    set_timer1(3036); 
0080:  CLRF   0E
0081:  MOVLW  0B
0082:  MOVWF  0F
0083:  MOVLW  DC
0084:  MOVWF  0E
....................  
....................    enable_interrupts(INT_TIMER1); 
0085:  BSF    03.5
0086:  BSF    0C.0
....................    enable_interrupts(GLOBAL); 
0087:  MOVLW  C0
0088:  BCF    03.5
0089:  IORWF  0B,F
....................  
....................    while(TRUE) 
....................    { 
008A:  GOTO   08A
....................       //TODO: User Code 
....................    } 
....................  
.................... } 
008B:  SLEEP

Configuration Fuses:
   Word  1: 3F31   XT NOWDT PUT NOBROWNOUT NOLVP NOCPD NOWRT NODEBUG NOPROTECT
