CCS PCM C Compiler, Version 5.007, 61971               20-May-24 15:32

               Filename:   C:\z_ÖZEL\Ders\PIC C denemeler\Timer1_sayýcý\main.lst

               ROM used:   123 words (2%)
                           Largest free fragment is 2048
               RAM used:   13 (4%) at main() level
                           14 (4%) worst case
               Stack used: 1 locations (0 in main + 1 for interrupts)
               Stack size: 8

*
0000:  MOVLW  00
0001:  MOVWF  0A
0002:  GOTO   05B
0003:  NOP
0004:  MOVWF  7F
0005:  SWAPF  03,W
0006:  CLRF   03
0007:  MOVWF  21
0008:  MOVF   0A,W
0009:  MOVWF  20
000A:  CLRF   0A
000B:  MOVF   04,W
000C:  MOVWF  22
000D:  MOVF   77,W
000E:  MOVWF  23
000F:  MOVF   78,W
0010:  MOVWF  24
0011:  MOVF   79,W
0012:  MOVWF  25
0013:  MOVF   7A,W
0014:  MOVWF  26
0015:  BCF    03.7
0016:  BCF    03.5
0017:  MOVLW  8C
0018:  MOVWF  04
0019:  BTFSS  00.0
001A:  GOTO   01D
001B:  BTFSC  0C.0
001C:  GOTO   02E
001D:  MOVF   22,W
001E:  MOVWF  04
001F:  MOVF   23,W
0020:  MOVWF  77
0021:  MOVF   24,W
0022:  MOVWF  78
0023:  MOVF   25,W
0024:  MOVWF  79
0025:  MOVF   26,W
0026:  MOVWF  7A
0027:  MOVF   20,W
0028:  MOVWF  0A
0029:  SWAPF  21,W
002A:  MOVWF  03
002B:  SWAPF  7F,F
002C:  SWAPF  7F,W
002D:  RETFIE
002E:  BCF    0A.3
002F:  BCF    0A.4
0030:  GOTO   031
.................... #include <main.h> 
.................... #include <16F877A.h> 
.................... //////// Standard Header file for the PIC16F877A device //////////////// 
.................... #device PIC16F877A 
....................  
.................... #list 
....................  
.................... #device ADC=16 
....................  
.................... #FUSES NOWDT                 	//No Watch Dog Timer 
.................... #FUSES NOBROWNOUT            	//No brownout reset 
.................... #FUSES NOLVP                 	//No low voltage prgming, B3(PIC16) or B5(PIC18) used for I/O 
....................  
.................... #use delay(crystal=4MHz) 
*
003E:  MOVLW  28
003F:  MOVWF  04
0040:  BCF    03.7
0041:  MOVF   00,W
0042:  BTFSC  03.2
0043:  GOTO   052
0044:  MOVLW  01
0045:  MOVWF  78
0046:  CLRF   77
0047:  DECFSZ 77,F
0048:  GOTO   047
0049:  DECFSZ 78,F
004A:  GOTO   046
004B:  MOVLW  4A
004C:  MOVWF  77
004D:  DECFSZ 77,F
004E:  GOTO   04D
004F:  GOTO   050
0050:  DECFSZ 00,F
0051:  GOTO   044
.................... #use FIXED_IO( B_outputs=PIN_B7,PIN_B6,PIN_B5,PIN_B4,PIN_B3,PIN_B2,PIN_B1,PIN_B0 ) 
....................  
....................  
.................... int sayac; 
.................... #INT_TIMER1 
.................... void  TIMER1_isr(void)  
.................... { 
....................    sayac=sayac+1; 
*
0031:  MOVLW  01
0032:  ADDWF  27,F
....................    if(sayac==16){sayac=0;} 
0033:  MOVF   27,W
0034:  SUBLW  10
0035:  BTFSC  03.2
0036:  CLRF   27
....................    output_b(sayac); 
0037:  BSF    03.5
0038:  CLRF   06
0039:  BCF    03.5
003A:  MOVF   27,W
003B:  MOVWF  06
....................    delay_ms(100); 
003C:  MOVLW  64
003D:  MOVWF  28
....................    set_timer1(65531); 
*
0052:  CLRF   0E
0053:  MOVLW  FF
0054:  MOVWF  0F
0055:  MOVLW  FB
0056:  MOVWF  0E
0057:  BCF    0C.0
0058:  BCF    0A.3
0059:  BCF    0A.4
005A:  GOTO   01D
.................... } 
....................  
.................... void main() 
005B:  BSF    03.5
005C:  BSF    1F.0
005D:  BSF    1F.1
005E:  BSF    1F.2
005F:  BCF    1F.3
0060:  MOVLW  07
0061:  MOVWF  1C
0062:  BCF    03.7
0063:  MOVLW  1F
0064:  ANDWF  03,F
.................... { 
....................    sayac=0; 
0065:  BCF    03.5
0066:  CLRF   27
....................    set_tris_b(0x00); 
0067:  MOVLW  00
0068:  BSF    03.5
0069:  MOVWF  06
....................    output_b(0x00); 
006A:  CLRF   06
006B:  BCF    03.5
006C:  CLRF   06
....................     
....................    set_timer1(65531); 
006D:  CLRF   0E
006E:  MOVLW  FF
006F:  MOVWF  0F
0070:  MOVLW  FB
0071:  MOVWF  0E
....................     
....................    setup_timer_1(T1_EXTERNAL|T1_DIV_BY_1);      //65,5 ms overflow 
0072:  MOVLW  87
0073:  MOVWF  10
....................  
....................  
....................    enable_interrupts(INT_TIMER1); 
0074:  BSF    03.5
0075:  BSF    0C.0
....................    enable_interrupts(GLOBAL); 
0076:  MOVLW  C0
0077:  BCF    03.5
0078:  IORWF  0B,F
....................  
....................    while(TRUE) 
....................    { 
0079:  GOTO   079
....................       //TODO: User Code 
....................    } 
....................  
.................... } 
007A:  SLEEP

Configuration Fuses:
   Word  1: 3F31   XT NOWDT PUT NOBROWNOUT NOLVP NOCPD NOWRT NODEBUG NOPROTECT
