CCS PCH C Compiler, Version 5.007, 61971               05-Mar-24 16:25

               Filename:   C:\z_ÖZEL\Ders\PIC C denemeler\yuruyen_ýsýk_cýft_yon\main.lst

               ROM used:   160 bytes (0%)
                           Largest free fragment is 32608
               RAM used:   5 (0%) at main() level
                           7 (0%) worst case
               Stack used: 0 locations
               Stack size: 31

*
0000:  GOTO   002C
.................... #include <main.h> 
.................... #include <18F452.h> 
.................... //////// Standard Header file for the PIC18F452 device //////////////// 
.................... #device PIC18F452 
....................  
.................... #list 
....................  
.................... #device ADC=16 
....................  
.................... #FUSES NOWDT                 	//No Watch Dog Timer 
.................... #FUSES WDT128                	//Watch Dog Timer uses 1:128 Postscale 
.................... #FUSES NOBROWNOUT            	//No brownout reset 
.................... #FUSES NOLVP                 	//No low voltage prgming, B3(PIC16) or B5(PIC18) used for I/O 
....................  
.................... #use delay(crystal=4000000) 
0004:  CLRF   FEA
0006:  MOVLW  07
0008:  MOVWF  FE9
000A:  MOVF   FEF,W
000C:  BZ    002A
000E:  MOVLW  01
0010:  MOVWF  01
0012:  CLRF   00
0014:  DECFSZ 00,F
0016:  BRA    0014
0018:  DECFSZ 01,F
001A:  BRA    0012
001C:  MOVLW  4A
001E:  MOVWF  00
0020:  DECFSZ 00,F
0022:  BRA    0020
0024:  BRA    0026
0026:  DECFSZ FEF,F
0028:  BRA    000E
002A:  RETURN 0
.................... #use FIXED_IO( B_outputs=PIN_B7,PIN_B6,PIN_B5,PIN_B4,PIN_B3,PIN_B2,PIN_B1,PIN_B0 ) 
....................  
....................  
....................  
.................... void main() 
002C:  CLRF   FF8
002E:  BCF    FD0.7
0030:  BSF    FC1.0
0032:  BSF    FC1.1
0034:  BSF    FC1.2
0036:  BCF    FC1.3
.................... { 
....................    set_tris_b(0x00); 
0038:  MOVLW  00
003A:  MOVWF  F93
....................    output_b(0x00); 
003C:  CLRF   F93
003E:  CLRF   F8A
....................    int z=0b00000001; 
0040:  MOVLW  01
0042:  MOVWF  05
....................    while(1){ 
....................    s1: 
....................    output_b(z); 
0044:  CLRF   F93
0046:  MOVFF  05,F8A
....................    delay_ms(500); 
004A:  MOVLW  02
004C:  MOVWF  06
004E:  MOVLW  FA
0050:  MOVWF  07
0052:  RCALL  0004
0054:  DECFSZ 06,F
0056:  BRA    004E
....................    z=z<<1; 
0058:  BCF    FD8.0
005A:  RLCF   05,F
....................     
....................    if(z==0b10000000){ 
005C:  MOVF   05,W
005E:  SUBLW  80
0060:  BNZ   009C
....................       output_b(z); 
0062:  CLRF   F93
0064:  MOVFF  05,F8A
....................       while(1){ 
....................         delay_ms(500); 
0068:  MOVLW  02
006A:  MOVWF  06
006C:  MOVLW  FA
006E:  MOVWF  07
0070:  RCALL  0004
0072:  DECFSZ 06,F
0074:  BRA    006C
....................         z=z>>1; 
0076:  BCF    FD8.0
0078:  RRCF   05,F
....................         output_b(z); 
007A:  CLRF   F93
007C:  MOVFF  05,F8A
....................         delay_ms(500); 
0080:  MOVLW  02
0082:  MOVWF  06
0084:  MOVLW  FA
0086:  MOVWF  07
0088:  RCALL  0004
008A:  DECFSZ 06,F
008C:  BRA    0084
....................         if(z==0b00000001){ 
008E:  DECFSZ 05,W
0090:  BRA    009A
....................             output_b(z); 
0092:  CLRF   F93
0094:  MOVFF  05,F8A
....................             goto s1; 
0098:  BRA    0044
....................         } 
009A:  BRA    0068
....................       } 
....................        
....................       } 
009C:  BRA    0044
....................    } 
.................... } 
009E:  SLEEP 

Configuration Fuses:
   Word  1: 2100   XT NOOSCSEN
   Word  2: 0E0C   PUT NOBROWNOUT BORV20 NOWDT WDT128
   Word  3: 0100   CCP2C1
   Word  4: 0081   STVREN NOLVP NODEBUG
   Word  5: C00F   NOPROTECT NOCPB NOCPD
   Word  6: E00F   NOWRT NOWRTC NOWRTB NOWRTD
   Word  7: 400F   NOEBTR NOEBTRB
