CCS PCM C Compiler, Version 5.007, 61971               26-Mar-24 15:03

               Filename:   C:\Users\Bengi\Desktop\uygulamalar\Mikroiþlemciler\camasir_makinesi\main.lst

               ROM used:   143 words (2%)
                           Largest free fragment is 2048
               RAM used:   8 (2%) at main() level
                           9 (2%) worst case
               Stack used: 0 locations
               Stack size: 8

*
0000:  MOVLW  00
0001:  MOVWF  0A
0002:  GOTO   019
0003:  NOP
.................... #include <main.h> 
.................... #include <16F877A.h> 
.................... //////// Standard Header file for the PIC16F877A device //////////////// 
.................... #device PIC16F877A 
....................  
.................... #list 
....................  
.................... #device ADC=16 
....................  
.................... #FUSES NOWDT                 	//No Watch Dog Timer 
.................... #FUSES NOBROWNOUT            	//No brownout reset 
.................... #FUSES NOLVP                 	//No low voltage prgming, B3(PIC16) or B5(PIC18) used for I/O 
....................  
.................... #use delay(crystal=4000000) 
0004:  MOVLW  23
0005:  MOVWF  04
0006:  BCF    03.7
0007:  MOVF   00,W
0008:  BTFSC  03.2
0009:  GOTO   018
000A:  MOVLW  01
000B:  MOVWF  78
000C:  CLRF   77
000D:  DECFSZ 77,F
000E:  GOTO   00D
000F:  DECFSZ 78,F
0010:  GOTO   00C
0011:  MOVLW  4A
0012:  MOVWF  77
0013:  DECFSZ 77,F
0014:  GOTO   013
0015:  GOTO   016
0016:  DECFSZ 00,F
0017:  GOTO   00A
0018:  RETURN
.................... #use FIXED_IO( B_outputs=PIN_B7,PIN_B6,PIN_B5,PIN_B4,PIN_B3,PIN_B2,PIN_B1,PIN_B0 ) 
.................... #use FIXED_IO( D_outputs=PIN_D7,PIN_D6,PIN_D5,PIN_D4,PIN_D3,PIN_D2,PIN_D1,PIN_D0 ) 
....................  
....................  
.................... int i; 
.................... void main() 
0019:  MOVLW  FF
001A:  MOVWF  21
001B:  BSF    03.5
001C:  BSF    1F.0
001D:  BSF    1F.1
001E:  BSF    1F.2
001F:  BCF    1F.3
0020:  MOVLW  07
0021:  MOVWF  1C
0022:  BCF    03.7
0023:  MOVLW  1F
0024:  ANDWF  03,F
.................... { 
....................    set_tris_a(0xFF); 
0025:  MOVLW  FF
0026:  MOVWF  05
....................    set_tris_b(0x00); 
0027:  MOVLW  00
0028:  MOVWF  06
....................    set_tris_d(0x00); 
0029:  MOVWF  08
....................     
....................    output_c(0x00); 
002A:  BCF    03.5
002B:  MOVWF  21
002C:  BSF    03.5
002D:  CLRF   07
002E:  BCF    03.5
002F:  CLRF   07
....................    output_d(0x00); 
0030:  BSF    03.5
0031:  CLRF   08
0032:  BCF    03.5
0033:  CLRF   08
....................  
....................    while(TRUE) 
....................    { 
....................       if(input(pin_A0) == 1) { 
0034:  BSF    03.5
0035:  BSF    05.0
0036:  BCF    03.5
0037:  BTFSS  05.0
0038:  GOTO   08D
....................          while(input(pin_A0) == 1); 
0039:  BSF    03.5
003A:  BSF    05.0
003B:  BCF    03.5
003C:  BTFSC  05.0
003D:  GOTO   039
....................          delay_ms(20); 
003E:  MOVLW  14
003F:  MOVWF  23
0040:  CALL   004
....................          output_high(pin_B3); 
0041:  MOVLW  00
0042:  BSF    03.5
0043:  MOVWF  06
0044:  BCF    03.5
0045:  BSF    06.3
....................          delay_ms(2000); 
0046:  MOVLW  08
0047:  MOVWF  22
0048:  MOVLW  FA
0049:  MOVWF  23
004A:  CALL   004
004B:  DECFSZ 22,F
004C:  GOTO   048
....................          output_low(pin_B3); 
004D:  MOVLW  00
004E:  BSF    03.5
004F:  MOVWF  06
0050:  BCF    03.5
0051:  BCF    06.3
....................           
....................          for(i = 0; i< 3; i++) { 
0052:  CLRF   20
0053:  MOVF   20,W
0054:  SUBLW  02
0055:  BTFSS  03.0
0056:  GOTO   07C
....................             output_b(0x05); 
0057:  BSF    03.5
0058:  CLRF   06
0059:  MOVLW  05
005A:  BCF    03.5
005B:  MOVWF  06
....................             delay_ms(3000); 
005C:  MOVLW  0C
005D:  MOVWF  22
005E:  MOVLW  FA
005F:  MOVWF  23
0060:  CALL   004
0061:  DECFSZ 22,F
0062:  GOTO   05E
....................           
....................             output_b(0x06); 
0063:  BSF    03.5
0064:  CLRF   06
0065:  MOVLW  06
0066:  BCF    03.5
0067:  MOVWF  06
....................             delay_ms(3000); 
0068:  MOVLW  0C
0069:  MOVWF  22
006A:  MOVLW  FA
006B:  MOVWF  23
006C:  CALL   004
006D:  DECFSZ 22,F
006E:  GOTO   06A
....................              
....................             output_b(0x00); 
006F:  BSF    03.5
0070:  CLRF   06
0071:  BCF    03.5
0072:  CLRF   06
....................             delay_ms(500); 
0073:  MOVLW  02
0074:  MOVWF  22
0075:  MOVLW  FA
0076:  MOVWF  23
0077:  CALL   004
0078:  DECFSZ 22,F
0079:  GOTO   075
007A:  INCF   20,F
007B:  GOTO   053
....................          } 
....................           
....................          output_high(pin_B4); 
007C:  MOVLW  00
007D:  BSF    03.5
007E:  MOVWF  06
007F:  BCF    03.5
0080:  BSF    06.4
....................          delay_ms(2000); 
0081:  MOVLW  08
0082:  MOVWF  22
0083:  MOVLW  FA
0084:  MOVWF  23
0085:  CALL   004
0086:  DECFSZ 22,F
0087:  GOTO   083
....................          output_low(pin_B4); 
0088:  MOVLW  00
0089:  BSF    03.5
008A:  MOVWF  06
008B:  BCF    03.5
008C:  BCF    06.4
....................           
....................       } 
008D:  GOTO   034
....................        
....................    } 
....................  
.................... } 
008E:  SLEEP

Configuration Fuses:
   Word  1: 3F31   XT NOWDT PUT NOBROWNOUT NOLVP NOCPD NOWRT NODEBUG NOPROTECT
